; Function Attrs: mustprogress nofree nosync memory(readwrite, inaccessiblemem: none) uwtable
define internal fastcc noundef zeroext i1 @_ZN4absl18debugging_internalL21ParseBracedExpressionEPNS0_5StateE(ptr noundef %0) unnamed_addr #6 personality ptr @__gxx_personality_v0 {
  %2 = alloca %"struct.absl::debugging_internal::ParseState", align 4
  %3 = getelementptr inbounds nuw i8, ptr %0, i64 20
  %4 = load i32, ptr %3, align 4, !tbaa !17
  %5 = add nsw i32 %4, 1
  store i32 %5, ptr %3, align 4, !tbaa !17
  %6 = getelementptr inbounds nuw i8, ptr %0, i64 24
  %7 = load i32, ptr %6, align 8, !tbaa !15
  %8 = add nsw i32 %7, 1
  store i32 %8, ptr %6, align 8, !tbaa !15
  %9 = icmp sgt i32 %4, 255
  %10 = icmp sgt i32 %7, 131071
  %or.cond = select i1 %9, i1 true, i1 %10
  br i1 %or.cond, label %_ZNK4absl18debugging_internal12_GLOBAL__N_115ComplexityGuard12IsTooComplexEv.exit.thread, label %11

11:                                               ; preds = %1
  call void @llvm.lifetime.start.p0(i64 16, ptr nonnull %2)
  %12 = getelementptr inbounds nuw i8, ptr %0, i64 28
  call void @llvm.memcpy.p0.p0.i64(ptr noundef nonnull align 4 dereferenceable(16) %2, ptr noundef nonnull align 4 dereferenceable(16) %12, i64 16, i1 false), !tbaa.struct !31
  %13 = add nsw i32 %4, 2
  store i32 %13, ptr %3, align 4, !tbaa !17
  %14 = add nsw i32 %7, 2
  store i32 %14, ptr %6, align 8, !tbaa !15
  %15 = icmp sgt i32 %4, 254
  %16 = icmp sgt i32 %7, 131070
  %or.cond.i = select i1 %15, i1 true, i1 %16
  br i1 %or.cond.i, label %_ZN4absl18debugging_internalL17ParseTwoCharTokenEPNS0_5StateEPKc.exit.thread, label %17

17:                                               ; preds = %11
  %.val11.i = load ptr, ptr %0, align 8, !tbaa !7
  %.val12.i = load i32, ptr %12, align 4, !tbaa !16
  %18 = sext i32 %.val12.i to i64
  %19 = getelementptr inbounds i8, ptr %.val11.i, i64 %18
  %20 = load i8, ptr %19, align 1, !tbaa !4
  %21 = icmp eq i8 %20, 100
  br i1 %21, label %22, label %_ZN4absl18debugging_internalL17ParseTwoCharTokenEPNS0_5StateEPKc.exit.thread

22:                                               ; preds = %17
  %23 = getelementptr inbounds nuw i8, ptr %19, i64 1
  %24 = load i8, ptr %23, align 1, !tbaa !4
  %25 = icmp eq i8 %24, 105
  br i1 %25, label %26, label %_ZN4absl18debugging_internalL17ParseTwoCharTokenEPNS0_5StateEPKc.exit.thread

_ZN4absl18debugging_internalL17ParseTwoCharTokenEPNS0_5StateEPKc.exit.thread: ; preds = %22, %17, %11
  store i32 %5, ptr %3, align 4, !tbaa !17
  br label %36

26:                                               ; preds = %22
  %27 = add nsw i32 %.val12.i, 2
  store i32 %27, ptr %12, align 4, !tbaa !16
  store i32 %5, ptr %3, align 4, !tbaa !17
  %28 = tail call fastcc noundef zeroext i1 @_ZN4absl18debugging_internalL15ParseSourceNameEPNS0_5StateE(ptr noundef nonnull %0)
  br i1 %28, label %29, label %36

29:                                               ; preds = %26
  %30 = invoke fastcc noundef zeroext i1 @_ZN4absl18debugging_internalL21ParseBracedExpressionEPNS0_5StateE(ptr noundef nonnull %0)
          to label %31 unwind label %32

31:                                               ; preds = %29
  br i1 %30, label %87, label %36

32:                                               ; preds = %85, %82, %79, %75, %56, %52, %29
  %33 = landingpad { ptr, i32 }
          cleanup
  call void @llvm.lifetime.end.p0(i64 16, ptr nonnull %2)
  %34 = load i32, ptr %3, align 4, !tbaa !17
  %35 = add nsw i32 %34, -1
  store i32 %35, ptr %3, align 4, !tbaa !17
  resume { ptr, i32 } %33

36:                                               ; preds = %_ZN4absl18debugging_internalL17ParseTwoCharTokenEPNS0_5StateEPKc.exit.thread, %31, %26
  call void @llvm.memcpy.p0.p0.i64(ptr noundef nonnull align 4 dereferenceable(16) %12, ptr noundef nonnull align 4 dereferenceable(16) %2, i64 16, i1 false), !tbaa.struct !31
  %37 = load i32, ptr %3, align 4, !tbaa !17
  %38 = add nsw i32 %37, 1
  store i32 %38, ptr %3, align 4, !tbaa !17
  %39 = load i32, ptr %6, align 8, !tbaa !15
  %40 = add nsw i32 %39, 1
  store i32 %40, ptr %6, align 8, !tbaa !15
  %41 = icmp sgt i32 %37, 255
  %42 = icmp sgt i32 %39, 131071
  %or.cond.i21 = select i1 %41, i1 true, i1 %42
  br i1 %or.cond.i21, label %_ZN4absl18debugging_internalL17ParseTwoCharTokenEPNS0_5StateEPKc.exit25.thread, label %43

43:                                               ; preds = %36
  %.val11.i22 = load ptr, ptr %0, align 8, !tbaa !7
  %.val12.i23 = load i32, ptr %12, align 4, !tbaa !16
  %44 = sext i32 %.val12.i23 to i64
  %45 = getelementptr inbounds i8, ptr %.val11.i22, i64 %44
  %46 = load i8, ptr %45, align 1, !tbaa !4
  %47 = icmp eq i8 %46, 100
  br i1 %47, label %48, label %_ZN4absl18debugging_internalL17ParseTwoCharTokenEPNS0_5StateEPKc.exit25.thread

48:                                               ; preds = %43
  %49 = getelementptr inbounds nuw i8, ptr %45, i64 1
  %50 = load i8, ptr %49, align 1, !tbaa !4
  %51 = icmp eq i8 %50, 120
  br i1 %51, label %52, label %_ZN4absl18debugging_internalL17ParseTwoCharTokenEPNS0_5StateEPKc.exit25.thread

_ZN4absl18debugging_internalL17ParseTwoCharTokenEPNS0_5StateEPKc.exit25.thread: ; preds = %48, %43, %36
  store i32 %37, ptr %3, align 4, !tbaa !17
  br label %59

52:                                               ; preds = %48
  %53 = add nsw i32 %.val12.i23, 2
  store i32 %53, ptr %12, align 4, !tbaa !16
  store i32 %37, ptr %3, align 4, !tbaa !17
  %54 = invoke fastcc noundef zeroext i1 @_ZN4absl18debugging_internalL15ParseExpressionEPNS0_5StateE(ptr noundef nonnull %0)
          to label %55 unwind label %32

55:                                               ; preds = %52
  br i1 %54, label %56, label %59

56:                                               ; preds = %55
  %57 = invoke fastcc noundef zeroext i1 @_ZN4absl18debugging_internalL21ParseBracedExpressionEPNS0_5StateE(ptr noundef nonnull %0)
          to label %58 unwind label %32

58:                                               ; preds = %56
  br i1 %57, label %87, label %59

59:                                               ; preds = %_ZN4absl18debugging_internalL17ParseTwoCharTokenEPNS0_5StateEPKc.exit25.thread, %58, %55
  call void @llvm.memcpy.p0.p0.i64(ptr noundef nonnull align 4 dereferenceable(16) %12, ptr noundef nonnull align 4 dereferenceable(16) %2, i64 16, i1 false), !tbaa.struct !31
  %60 = load i32, ptr %3, align 4, !tbaa !17
  %61 = add nsw i32 %60, 1
  store i32 %61, ptr %3, align 4, !tbaa !17
  %62 = load i32, ptr %6, align 8, !tbaa !15
  %63 = add nsw i32 %62, 1
  store i32 %63, ptr %6, align 8, !tbaa !15
  %64 = icmp sgt i32 %60, 255
  %65 = icmp sgt i32 %62, 131071
  %or.cond.i26 = select i1 %64, i1 true, i1 %65
  br i1 %or.cond.i26, label %_ZN4absl18debugging_internalL17ParseTwoCharTokenEPNS0_5StateEPKc.exit30.thread, label %66

66:                                               ; preds = %59
  %.val11.i27 = load ptr, ptr %0, align 8, !tbaa !7
  %.val12.i28 = load i32, ptr %12, align 4, !tbaa !16
  %67 = sext i32 %.val12.i28 to i64
  %68 = getelementptr inbounds i8, ptr %.val11.i27, i64 %67
  %69 = load i8, ptr %68, align 1, !tbaa !4
  %70 = icmp eq i8 %69, 100
  br i1 %70, label %71, label %_ZN4absl18debugging_internalL17ParseTwoCharTokenEPNS0_5StateEPKc.exit30.thread

71:                                               ; preds = %66
  %72 = getelementptr inbounds nuw i8, ptr %68, i64 1
  %73 = load i8, ptr %72, align 1, !tbaa !4
  %74 = icmp eq i8 %73, 88
  br i1 %74, label %75, label %_ZN4absl18debugging_internalL17ParseTwoCharTokenEPNS0_5StateEPKc.exit30.thread

_ZN4absl18debugging_internalL17ParseTwoCharTokenEPNS0_5StateEPKc.exit30.thread: ; preds = %71, %66, %59
  store i32 %60, ptr %3, align 4, !tbaa !17
  br label %85

75:                                               ; preds = %71
  %76 = add nsw i32 %.val12.i28, 2
  store i32 %76, ptr %12, align 4, !tbaa !16
  store i32 %60, ptr %3, align 4, !tbaa !17
  %77 = invoke fastcc noundef zeroext i1 @_ZN4absl18debugging_internalL15ParseExpressionEPNS0_5StateE(ptr noundef nonnull %0)
          to label %78 unwind label %32

78:                                               ; preds = %75
  br i1 %77, label %79, label %85

79:                                               ; preds = %78
  %80 = invoke fastcc noundef zeroext i1 @_ZN4absl18debugging_internalL15ParseExpressionEPNS0_5StateE(ptr noundef nonnull %0)
          to label %81 unwind label %32

81:                                               ; preds = %79
  br i1 %80, label %82, label %85

82:                                               ; preds = %81
  %83 = invoke fastcc noundef zeroext i1 @_ZN4absl18debugging_internalL21ParseBracedExpressionEPNS0_5StateE(ptr noundef nonnull %0)
          to label %84 unwind label %32

84:                                               ; preds = %82
  br i1 %83, label %87, label %85

85:                                               ; preds = %_ZN4absl18debugging_internalL17ParseTwoCharTokenEPNS0_5StateEPKc.exit30.thread, %84, %81, %78
  call void @llvm.memcpy.p0.p0.i64(ptr noundef nonnull align 4 dereferenceable(16) %12, ptr noundef nonnull align 4 dereferenceable(16) %2, i64 16, i1 false), !tbaa.struct !31
  %86 = invoke fastcc noundef zeroext i1 @_ZN4absl18debugging_internalL15ParseExpressionEPNS0_5StateE(ptr noundef nonnull %0)
          to label %87 unwind label %32

87:                                               ; preds = %85, %84, %58, %31
  %.1 = phi i1 [ true, %31 ], [ true, %58 ], [ true, %84 ], [ %86, %85 ]
  call void @llvm.lifetime.end.p0(i64 16, ptr nonnull %2)
  %.pre = load i32, ptr %3, align 4, !tbaa !17
  %88 = add nsw i32 %.pre, -1
  br label %_ZNK4absl18debugging_internal12_GLOBAL__N_115ComplexityGuard12IsTooComplexEv.exit.thread

_ZNK4absl18debugging_internal12_GLOBAL__N_115ComplexityGuard12IsTooComplexEv.exit.thread: ; preds = %1, %87
  %89 = phi i32 [ %88, %87 ], [ %4, %1 ]
  %.0 = phi i1 [ %.1, %87 ], [ false, %1 ]
  store i32 %89, ptr %3, align 4, !tbaa !17
  ret i1 %.0
}